; Function Attrs: nofree norecurse nosync nounwind memory(argmem: readwrite) uwtable
define internal void @yuv2p012l1_BE_c(ptr noundef readonly captures(none) %0, ptr noundef writeonly captures(none) %1, i32 noundef %2, ptr readnone captures(none) %3, i32 %4) #2 {
  %6 = icmp sgt i32 %2, 0
  br i1 %6, label %.lr.ph.i, label %yuv2p01xl1_c.exit

.lr.ph.i:                                         ; preds = %5
  %wide.trip.count29.i = zext nneg i32 %2 to i64
  br label %.lr.ph.split.i

.lr.ph.split.i:                                   ; preds = %.lr.ph.split.i, %.lr.ph.i
  %indvars.iv.i = phi i64 [ %indvars.iv.next.i, %.lr.ph.split.i ], [ 0, %.lr.ph.i ]
  %7 = getelementptr inbounds nuw i16, ptr %0, i64 %indvars.iv.i
  %8 = load i16, ptr %7, align 2, !tbaa !39
  %9 = sext i16 %8 to i32
  %10 = add nsw i32 %9, 4
  %11 = ashr i32 %10, 3
  %12 = tail call i32 @llvm.smax.i32(i32 %11, i32 0)
  %13 = tail call i32 @llvm.umin.i32(i32 %12, i32 4095)
  %.0.i.i.tr = trunc nuw nsw i32 %13 to i16
  %14 = shl nuw i16 %.0.i.i.tr, 4
  %15 = tail call i16 @llvm.bswap.i16(i16 %14)
  %16 = getelementptr inbounds nuw i16, ptr %1, i64 %indvars.iv.i
  store i16 %15, ptr %16, align 1, !tbaa !41
  %indvars.iv.next.i = add nuw nsw i64 %indvars.iv.i, 1
  %exitcond.not.i = icmp eq i64 %indvars.iv.next.i, %wide.trip.count29.i
  br i1 %exitcond.not.i, label %yuv2p01xl1_c.exit, label %.lr.ph.split.i, !llvm.loop !42

yuv2p01xl1_c.exit:                                ; preds = %.lr.ph.split.i, %5
  ret void
}